; Function Attrs: mustprogress nounwind uwtable
define hidden void @_ZN10duckdb_re29PrefilterD2Ev(ptr noundef nonnull align 8 captures(address) dereferenceable(52) %0) unnamed_addr #2 align 2 personality ptr @__gxx_personality_v0 {
  %2 = getelementptr inbounds nuw i8, ptr %0, i64 8
  %3 = load ptr, ptr %2, align 8, !tbaa !18
  %.not = icmp eq ptr %3, null
  br i1 %.not, label %26, label %.preheader

.preheader:                                       ; preds = %1
  %4 = getelementptr inbounds nuw i8, ptr %3, i64 8
  %5 = load ptr, ptr %4, align 8, !tbaa !19
  %6 = load ptr, ptr %3, align 8, !tbaa !22
  %.not8 = icmp eq ptr %5, %6
  br i1 %.not8, label %._crit_edge, label %.lr.ph

.lr.ph:                                           ; preds = %.preheader, %13
  %7 = phi ptr [ %14, %13 ], [ %6, %.preheader ]
  %8 = phi ptr [ %15, %13 ], [ %3, %.preheader ]
  %.06 = phi i64 [ %16, %13 ], [ 0, %.preheader ]
  %9 = getelementptr inbounds nuw ptr, ptr %7, i64 %.06
  %10 = load ptr, ptr %9, align 8, !tbaa !23
  %11 = icmp eq ptr %10, null
  br i1 %11, label %13, label %12

12:                                               ; preds = %.lr.ph
  tail call void @_ZN10duckdb_re29PrefilterD2Ev(ptr noundef nonnull align 8 dereferenceable(52) %10) #21
  tail call void @_ZdlPv(ptr noundef nonnull %10) #22
  %.pre = load ptr, ptr %2, align 8, !tbaa !18
  %.pre11 = load ptr, ptr %.pre, align 8, !tbaa !22
  br label %13

13:                                               ; preds = %.lr.ph, %12
  %14 = phi ptr [ %7, %.lr.ph ], [ %.pre11, %12 ]
  %15 = phi ptr [ %8, %.lr.ph ], [ %.pre, %12 ]
  %16 = add nuw i64 %.06, 1
  %17 = getelementptr inbounds nuw i8, ptr %15, i64 8
  %18 = load ptr, ptr %17, align 8, !tbaa !19
  %19 = ptrtoint ptr %18 to i64
  %20 = ptrtoint ptr %14 to i64
  %21 = sub i64 %19, %20
  %22 = ashr exact i64 %21, 3
  %23 = icmp ult i64 %16, %22
  br i1 %23, label %.lr.ph, label %._crit_edge, !llvm.loop !25

._crit_edge:                                      ; preds = %13, %.preheader
  %.lcssa5 = phi ptr [ %3, %.preheader ], [ %15, %13 ]
  %.lcssa = phi ptr [ %6, %.preheader ], [ %14, %13 ]
  %.not.i.i.i = icmp eq ptr %.lcssa, null
  br i1 %.not.i.i.i, label %25, label %24

24:                                               ; preds = %._crit_edge
  tail call void @_ZdlPv(ptr noundef nonnull %.lcssa) #22
  br label %25

25:                                               ; preds = %24, %._crit_edge
  tail call void @_ZdlPv(ptr noundef nonnull %.lcssa5) #22
  store ptr null, ptr %2, align 8, !tbaa !18
  br label %26

26:                                               ; preds = %25, %1
  %27 = getelementptr inbounds nuw i8, ptr %0, i64 16
  %28 = load ptr, ptr %27, align 8, !tbaa !27
  %29 = getelementptr inbounds nuw i8, ptr %0, i64 32
  %30 = icmp eq ptr %28, %29
  br i1 %30, label %_ZNKSt7__cxx1112basic_stringIcSt11char_traitsIcESaIcEE11_M_is_localEv.exit.thread.i.i, label %_ZNKSt7__cxx1112basic_stringIcSt11char_traitsIcESaIcEE11_M_is_localEv.exit.i.i

_ZNKSt7__cxx1112basic_stringIcSt11char_traitsIcESaIcEE11_M_is_localEv.exit.thread.i.i: ; preds = %26
  %31 = getelementptr inbounds nuw i8, ptr %0, i64 24
  %32 = load i64, ptr %31, align 8, !tbaa !9
  %33 = icmp ult i64 %32, 16
  tail call void @llvm.assume(i1 %33)
  br label %_ZNSt7__cxx1112basic_stringIcSt11char_traitsIcESaIcEED2Ev.exit

_ZNKSt7__cxx1112basic_stringIcSt11char_traitsIcESaIcEE11_M_is_localEv.exit.i.i: ; preds = %26
  tail call void @_ZdlPv(ptr noundef %28) #22
  br label %_ZNSt7__cxx1112basic_stringIcSt11char_traitsIcESaIcEED2Ev.exit

_ZNSt7__cxx1112basic_stringIcSt11char_traitsIcESaIcEED2Ev.exit: ; preds = %_ZNKSt7__cxx1112basic_stringIcSt11char_traitsIcESaIcEE11_M_is_localEv.exit.thread.i.i, %_ZNKSt7__cxx1112basic_stringIcSt11char_traitsIcESaIcEE11_M_is_localEv.exit.i.i
  ret void
}